target datalayout = "e-m:e-p270:32:32-p271:32:32-p272:64:64-i64:64-i128:128-f80:128-n8:16:32:64-S128"
target triple = "x86_64-pc-linux-gnu"

%struct.Dau_Dsd_t_ = type { i32, i32, i32, i32, i32, i32, i32, i32, ptr, [32 x [8 x i8]], [32 x [32 x i8]], [2000 x i8] }

@s_Truths6 = internal global [6 x i64] [i64 -6148914691236517206, i64 -3689348814741910324, i64 -1085102592571150096, i64 -71777214294589696, i64 -281470681808896, i64 -4294967296], align 16
@s_Truths6Neg = internal global [6 x i64] [i64 6148914691236517205, i64 3689348814741910323, i64 1085102592571150095, i64 71777214294589695, i64 281470681808895, i64 4294967295], align 16
@.str.19 = private unnamed_addr constant [3 x i8] c"!(\00", align 1
@.str.20 = private unnamed_addr constant [2 x i8] c"(\00", align 1
@.str.21 = private unnamed_addr constant [4 x i8] c"!(!\00", align 1
@.str.22 = private unnamed_addr constant [3 x i8] c"(!\00", align 1
@.str.23 = private unnamed_addr constant [2 x i8] c"[\00", align 1

; Function Attrs: inlinehint nounwind uwtable
define internal i32 @Abc_Tt6CofsOpposite(i64 noundef %0, i32 noundef %1) #2 {
  %3 = alloca i64, align 8
  %4 = alloca i32, align 4
  store i64 %0, ptr %3, align 8, !tbaa !33
  store i32 %1, ptr %4, align 4, !tbaa !8
  %5 = load i64, ptr %3, align 8, !tbaa !33
  %6 = xor i64 %5, -1
  %7 = load i32, ptr %4, align 4, !tbaa !8
  %8 = sext i32 %7 to i64
  %9 = getelementptr inbounds [6 x i64], ptr @s_Truths6Neg, i64 0, i64 %8
  %10 = load i64, ptr %9, align 8, !tbaa !33
  %11 = and i64 %6, %10
  %12 = load i64, ptr %3, align 8, !tbaa !33
  %13 = load i32, ptr %4, align 4, !tbaa !8
  %14 = shl i32 1, %13
  %15 = zext i32 %14 to i64
  %16 = lshr i64 %12, %15
  %17 = load i32, ptr %4, align 4, !tbaa !8
  %18 = sext i32 %17 to i64
  %19 = getelementptr inbounds [6 x i64], ptr @s_Truths6Neg, i64 0, i64 %18
  %20 = load i64, ptr %19, align 8, !tbaa !33
  %21 = and i64 %16, %20
  %22 = icmp eq i64 %11, %21
  %23 = zext i1 %22 to i32
  ret i32 %23
}

; Function Attrs: inlinehint nounwind uwtable
define internal i32 @Abc_Tt6Cof1IsConst0(i64 noundef %0, i32 noundef %1) #2 {
  %3 = alloca i64, align 8
  %4 = alloca i32, align 4
  store i64 %0, ptr %3, align 8, !tbaa !33
  store i32 %1, ptr %4, align 4, !tbaa !8
  %5 = load i64, ptr %3, align 8, !tbaa !33
  %6 = load i32, ptr %4, align 4, !tbaa !8
  %7 = sext i32 %6 to i64
  %8 = getelementptr inbounds [6 x i64], ptr @s_Truths6, i64 0, i64 %7
  %9 = load i64, ptr %8, align 8, !tbaa !33
  %10 = and i64 %5, %9
  %11 = icmp eq i64 %10, 0
  %12 = zext i1 %11 to i32
  ret i32 %12
}

; Function Attrs: inlinehint nounwind uwtable
define internal i64 @Abc_Tt6Cofactor0(i64 noundef %0, i32 noundef %1) #2 {
  %3 = alloca i64, align 8
  %4 = alloca i32, align 4
  store i64 %0, ptr %3, align 8, !tbaa !33
  store i32 %1, ptr %4, align 4, !tbaa !8
  %5 = load i64, ptr %3, align 8, !tbaa !33
  %6 = load i32, ptr %4, align 4, !tbaa !8
  %7 = sext i32 %6 to i64
  %8 = getelementptr inbounds [6 x i64], ptr @s_Truths6Neg, i64 0, i64 %7
  %9 = load i64, ptr %8, align 8, !tbaa !33
  %10 = and i64 %5, %9
  %11 = load i64, ptr %3, align 8, !tbaa !33
  %12 = load i32, ptr %4, align 4, !tbaa !8
  %13 = sext i32 %12 to i64
  %14 = getelementptr inbounds [6 x i64], ptr @s_Truths6Neg, i64 0, i64 %13
  %15 = load i64, ptr %14, align 8, !tbaa !33
  %16 = and i64 %11, %15
  %17 = load i32, ptr %4, align 4, !tbaa !8
  %18 = shl i32 1, %17
  %19 = zext i32 %18 to i64
  %20 = shl i64 %16, %19
  %21 = or i64 %10, %20
  ret i64 %21
}

; Function Attrs: inlinehint nounwind uwtable
define internal i32 @Abc_Tt6Cof1IsConst1(i64 noundef %0, i32 noundef %1) #2 {
  %3 = alloca i64, align 8
  %4 = alloca i32, align 4
  store i64 %0, ptr %3, align 8, !tbaa !33
  store i32 %1, ptr %4, align 4, !tbaa !8
  %5 = load i64, ptr %3, align 8, !tbaa !33
  %6 = load i32, ptr %4, align 4, !tbaa !8
  %7 = sext i32 %6 to i64
  %8 = getelementptr inbounds [6 x i64], ptr @s_Truths6, i64 0, i64 %7
  %9 = load i64, ptr %8, align 8, !tbaa !33
  %10 = and i64 %5, %9
  %11 = load i32, ptr %4, align 4, !tbaa !8
  %12 = sext i32 %11 to i64
  %13 = getelementptr inbounds [6 x i64], ptr @s_Truths6, i64 0, i64 %12
  %14 = load i64, ptr %13, align 8, !tbaa !33
  %15 = icmp eq i64 %10, %14
  %16 = zext i1 %15 to i32
  ret i32 %16
}

; Function Attrs: inlinehint nounwind uwtable
define internal i32 @Abc_Tt6Cof0IsConst0(i64 noundef %0, i32 noundef %1) #2 {
  %3 = alloca i64, align 8
  %4 = alloca i32, align 4
  store i64 %0, ptr %3, align 8, !tbaa !33
  store i32 %1, ptr %4, align 4, !tbaa !8
  %5 = load i64, ptr %3, align 8, !tbaa !33
  %6 = load i32, ptr %4, align 4, !tbaa !8
  %7 = sext i32 %6 to i64
  %8 = getelementptr inbounds [6 x i64], ptr @s_Truths6Neg, i64 0, i64 %7
  %9 = load i64, ptr %8, align 8, !tbaa !33
  %10 = and i64 %5, %9
  %11 = icmp eq i64 %10, 0
  %12 = zext i1 %11 to i32
  ret i32 %12
}

; Function Attrs: inlinehint nounwind uwtable
define internal i64 @Abc_Tt6Cofactor1(i64 noundef %0, i32 noundef %1) #2 {
  %3 = alloca i64, align 8
  %4 = alloca i32, align 4
  store i64 %0, ptr %3, align 8, !tbaa !33
  store i32 %1, ptr %4, align 4, !tbaa !8
  %5 = load i64, ptr %3, align 8, !tbaa !33
  %6 = load i32, ptr %4, align 4, !tbaa !8
  %7 = sext i32 %6 to i64
  %8 = getelementptr inbounds [6 x i64], ptr @s_Truths6, i64 0, i64 %7
  %9 = load i64, ptr %8, align 8, !tbaa !33
  %10 = and i64 %5, %9
  %11 = load i64, ptr %3, align 8, !tbaa !33
  %12 = load i32, ptr %4, align 4, !tbaa !8
  %13 = sext i32 %12 to i64
  %14 = getelementptr inbounds [6 x i64], ptr @s_Truths6, i64 0, i64 %13
  %15 = load i64, ptr %14, align 8, !tbaa !33
  %16 = and i64 %11, %15
  %17 = load i32, ptr %4, align 4, !tbaa !8
  %18 = shl i32 1, %17
  %19 = zext i32 %18 to i64
  %20 = lshr i64 %16, %19
  %21 = or i64 %10, %20
  ret i64 %21
}

; Function Attrs: inlinehint nounwind uwtable
define internal void @Dau_DsdWriteString(ptr noundef %0, ptr noundef %1) #2 {
  %3 = alloca ptr, align 8
  %4 = alloca ptr, align 8
  store ptr %0, ptr %3, align 8, !tbaa !80
  store ptr %1, ptr %4, align 8, !tbaa !3
  br label %5

5:                                                ; preds = %9, %2
  %6 = load ptr, ptr %4, align 8, !tbaa !3
  %7 = load i8, ptr %6, align 1, !tbaa !10
  %8 = icmp ne i8 %7, 0
  br i1 %8, label %9, label %21

9:                                                ; preds = %5
  %10 = load ptr, ptr %4, align 8, !tbaa !3
  %11 = getelementptr inbounds nuw i8, ptr %10, i32 1
  store ptr %11, ptr %4, align 8, !tbaa !3
  %12 = load i8, ptr %10, align 1, !tbaa !10
  %13 = load ptr, ptr %3, align 8, !tbaa !80
  %14 = getelementptr inbounds nuw %struct.Dau_Dsd_t_, ptr %13, i32 0, i32 11
  %15 = load ptr, ptr %3, align 8, !tbaa !80
  %16 = getelementptr inbounds nuw %struct.Dau_Dsd_t_, ptr %15, i32 0, i32 2
  %17 = load i32, ptr %16, align 8, !tbaa !102
  %18 = add nsw i32 %17, 1
  store i32 %18, ptr %16, align 8, !tbaa !102
  %19 = sext i32 %17 to i64
  %20 = getelementptr inbounds [2000 x i8], ptr %14, i64 0, i64 %19
  store i8 %12, ptr %20, align 1, !tbaa !10
  br label %5, !llvm.loop !139

21:                                               ; preds = %5
  ret void
}

; Function Attrs: inlinehint nounwind uwtable
define internal i32 @Abc_Tt6Cof0IsConst1(i64 noundef %0, i32 noundef %1) #2 {
  %3 = alloca i64, align 8
  %4 = alloca i32, align 4
  store i64 %0, ptr %3, align 8, !tbaa !33
  store i32 %1, ptr %4, align 4, !tbaa !8
  %5 = load i64, ptr %3, align 8, !tbaa !33
  %6 = load i32, ptr %4, align 4, !tbaa !8
  %7 = sext i32 %6 to i64
  %8 = getelementptr inbounds [6 x i64], ptr @s_Truths6Neg, i64 0, i64 %7
  %9 = load i64, ptr %8, align 8, !tbaa !33
  %10 = and i64 %5, %9
  %11 = load i32, ptr %4, align 4, !tbaa !8
  %12 = sext i32 %11 to i64
  %13 = getelementptr inbounds [6 x i64], ptr @s_Truths6Neg, i64 0, i64 %12
  %14 = load i64, ptr %13, align 8, !tbaa !33
  %15 = icmp eq i64 %10, %14
  %16 = zext i1 %15 to i32
  ret i32 %16
}

; Function Attrs: inlinehint nounwind uwtable
define internal i32 @Dau_Dsd6DecomposeSingleVarOne(ptr noundef %0, ptr noundef %1, ptr noundef %2, i32 noundef %3, i32 noundef %4) #2 {
  %6 = alloca i32, align 4
  %7 = alloca ptr, align 8
  %8 = alloca ptr, align 8
  %9 = alloca ptr, align 8
  %10 = alloca i32, align 4
  %11 = alloca i32, align 4
  store ptr %0, ptr %7, align 8, !tbaa !80
  store ptr %1, ptr %8, align 8, !tbaa !35
  store ptr %2, ptr %9, align 8, !tbaa !14
  store i32 %3, ptr %10, align 4, !tbaa !8
  store i32 %4, ptr %11, align 4, !tbaa !8
  %12 = load ptr, ptr %8, align 8, !tbaa !35
  %13 = getelementptr inbounds i64, ptr %12, i64 0
  %14 = load i64, ptr %13, align 8, !tbaa !33
  %15 = and i64 %14, 1
  %16 = icmp ne i64 %15, 0
  br i1 %16, label %17, label %35

17:                                               ; preds = %5
  %18 = load ptr, ptr %8, align 8, !tbaa !35
  %19 = getelementptr inbounds i64, ptr %18, i64 0
  %20 = load i64, ptr %19, align 8, !tbaa !33
  %21 = load i32, ptr %11, align 4, !tbaa !8
  %22 = call i32 @Abc_Tt6Cof0IsConst1(i64 noundef %20, i32 noundef %21)
  %23 = icmp ne i32 %22, 0
  br i1 %23, label %24, label %34

24:                                               ; preds = %17
  %25 = load ptr, ptr %7, align 8, !tbaa !80
  call void @Dau_DsdWriteString(ptr noundef %25, ptr noundef @.str.19)
  %26 = load ptr, ptr %8, align 8, !tbaa !35
  %27 = getelementptr inbounds i64, ptr %26, i64 0
  %28 = load i64, ptr %27, align 8, !tbaa !33
  %29 = load i32, ptr %11, align 4, !tbaa !8
  %30 = call i64 @Abc_Tt6Cofactor1(i64 noundef %28, i32 noundef %29)
  %31 = xor i64 %30, -1
  %32 = load ptr, ptr %8, align 8, !tbaa !35
  %33 = getelementptr inbounds i64, ptr %32, i64 0
  store i64 %31, ptr %33, align 8, !tbaa !33
  br label %118

34:                                               ; preds = %17
  br label %52

35:                                               ; preds = %5
  %36 = load ptr, ptr %8, align 8, !tbaa !35
  %37 = getelementptr inbounds i64, ptr %36, i64 0
  %38 = load i64, ptr %37, align 8, !tbaa !33
  %39 = load i32, ptr %11, align 4, !tbaa !8
  %40 = call i32 @Abc_Tt6Cof0IsConst0(i64 noundef %38, i32 noundef %39)
  %41 = icmp ne i32 %40, 0
  br i1 %41, label %42, label %51

42:                                               ; preds = %35
  %43 = load ptr, ptr %7, align 8, !tbaa !80
  call void @Dau_DsdWriteString(ptr noundef %43, ptr noundef @.str.20)
  %44 = load ptr, ptr %8, align 8, !tbaa !35
  %45 = getelementptr inbounds i64, ptr %44, i64 0
  %46 = load i64, ptr %45, align 8, !tbaa !33
  %47 = load i32, ptr %11, align 4, !tbaa !8
  %48 = call i64 @Abc_Tt6Cofactor1(i64 noundef %46, i32 noundef %47)
  %49 = load ptr, ptr %8, align 8, !tbaa !35
  %50 = getelementptr inbounds i64, ptr %49, i64 0
  store i64 %48, ptr %50, align 8, !tbaa !33
  br label %118

51:                                               ; preds = %35
  br label %52

52:                                               ; preds = %51, %34
  %53 = load ptr, ptr %8, align 8, !tbaa !35
  %54 = getelementptr inbounds i64, ptr %53, i64 0
  %55 = load i64, ptr %54, align 8, !tbaa !33
  %56 = lshr i64 %55, 63
  %57 = icmp ne i64 %56, 0
  br i1 %57, label %58, label %76

58:                                               ; preds = %52
  %59 = load ptr, ptr %8, align 8, !tbaa !35
  %60 = getelementptr inbounds i64, ptr %59, i64 0
  %61 = load i64, ptr %60, align 8, !tbaa !33
  %62 = load i32, ptr %11, align 4, !tbaa !8
  %63 = call i32 @Abc_Tt6Cof1IsConst1(i64 noundef %61, i32 noundef %62)
  %64 = icmp ne i32 %63, 0
  br i1 %64, label %65, label %75

65:                                               ; preds = %58
  %66 = load ptr, ptr %7, align 8, !tbaa !80
  call void @Dau_DsdWriteString(ptr noundef %66, ptr noundef @.str.21)
  %67 = load ptr, ptr %8, align 8, !tbaa !35
  %68 = getelementptr inbounds i64, ptr %67, i64 0
  %69 = load i64, ptr %68, align 8, !tbaa !33
  %70 = load i32, ptr %11, align 4, !tbaa !8
  %71 = call i64 @Abc_Tt6Cofactor0(i64 noundef %69, i32 noundef %70)
  %72 = xor i64 %71, -1
  %73 = load ptr, ptr %8, align 8, !tbaa !35
  %74 = getelementptr inbounds i64, ptr %73, i64 0
  store i64 %72, ptr %74, align 8, !tbaa !33
  br label %118

75:                                               ; preds = %58
  br label %93

76:                                               ; preds = %52
  %77 = load ptr, ptr %8, align 8, !tbaa !35
  %78 = getelementptr inbounds i64, ptr %77, i64 0
  %79 = load i64, ptr %78, align 8, !tbaa !33
  %80 = load i32, ptr %11, align 4, !tbaa !8
  %81 = call i32 @Abc_Tt6Cof1IsConst0(i64 noundef %79, i32 noundef %80)
  %82 = icmp ne i32 %81, 0
  br i1 %82, label %83, label %92

83:                                               ; preds = %76
  %84 = load ptr, ptr %7, align 8, !tbaa !80
  call void @Dau_DsdWriteString(ptr noundef %84, ptr noundef @.str.22)
  %85 = load ptr, ptr %8, align 8, !tbaa !35
  %86 = getelementptr inbounds i64, ptr %85, i64 0
  %87 = load i64, ptr %86, align 8, !tbaa !33
  %88 = load i32, ptr %11, align 4, !tbaa !8
  %89 = call i64 @Abc_Tt6Cofactor0(i64 noundef %87, i32 noundef %88)
  %90 = load ptr, ptr %8, align 8, !tbaa !35
  %91 = getelementptr inbounds i64, ptr %90, i64 0
  store i64 %89, ptr %91, align 8, !tbaa !33
  br label %118

92:                                               ; preds = %76
  br label %93

93:                                               ; preds = %92, %75
  %94 = load ptr, ptr %8, align 8, !tbaa !35
  %95 = getelementptr inbounds i64, ptr %94, i64 0
  %96 = load i64, ptr %95, align 8, !tbaa !33
  %97 = load i32, ptr %11, align 4, !tbaa !8
  %98 = call i32 @Abc_Tt6CofsOpposite(i64 noundef %96, i32 noundef %97)
  %99 = icmp ne i32 %98, 0
  br i1 %99, label %100, label %117

100:                                              ; preds = %93
  %101 = load ptr, ptr %7, align 8, !tbaa !80
  call void @Dau_DsdWriteString(ptr noundef %101, ptr noundef @.str.23)
  %102 = load ptr, ptr %8, align 8, !tbaa !35
  %103 = getelementptr inbounds i64, ptr %102, i64 0
  %104 = load i64, ptr %103, align 8, !tbaa !33
  %105 = load i32, ptr %11, align 4, !tbaa !8
  %106 = call i64 @Abc_Tt6Cofactor0(i64 noundef %104, i32 noundef %105)
  %107 = load ptr, ptr %8, align 8, !tbaa !35
  %108 = getelementptr inbounds i64, ptr %107, i64 0
  store i64 %106, ptr %108, align 8, !tbaa !33
  %109 = load ptr, ptr %7, align 8, !tbaa !80
  %110 = getelementptr inbounds nuw %struct.Dau_Dsd_t_, ptr %109, i32 0, i32 4
  %111 = load i32, ptr %110, align 8, !tbaa !100
  %112 = shl i32 1, %111
  %113 = load ptr, ptr %7, align 8, !tbaa !80
  %114 = getelementptr inbounds nuw %struct.Dau_Dsd_t_, ptr %113, i32 0, i32 5
  %115 = load i32, ptr %114, align 4, !tbaa !101
  %116 = or i32 %115, %112
  store i32 %116, ptr %114, align 4, !tbaa !101
  br label %118

117:                                              ; preds = %93
  store i32 0, ptr %6, align 4
  br label %144

118:                                              ; preds = %100, %83, %65, %42, %24
  %119 = load ptr, ptr %7, align 8, !tbaa !80
  %120 = getelementptr inbounds nuw %struct.Dau_Dsd_t_, ptr %119, i32 0, i32 4
  %121 = load i32, ptr %120, align 8, !tbaa !100
  %122 = add nsw i32 %121, 1
  store i32 %122, ptr %120, align 8, !tbaa !100
  %123 = load ptr, ptr %7, align 8, !tbaa !80
  %124 = load ptr, ptr %9, align 8, !tbaa !14
  %125 = load i32, ptr %11, align 4, !tbaa !8
  %126 = sext i32 %125 to i64
  %127 = getelementptr inbounds i32, ptr %124, i64 %126
  %128 = load i32, ptr %127, align 4, !tbaa !8
  call void @Dau_DsdWriteVar(ptr noundef %123, i32 noundef %128, i32 noundef 0)
  %129 = load ptr, ptr %9, align 8, !tbaa !14
  %130 = load i32, ptr %10, align 4, !tbaa !8
  %131 = sub nsw i32 %130, 1
  %132 = sext i32 %131 to i64
  %133 = getelementptr inbounds i32, ptr %129, i64 %132
  %134 = load i32, ptr %133, align 4, !tbaa !8
  %135 = load ptr, ptr %9, align 8, !tbaa !14
  %136 = load i32, ptr %11, align 4, !tbaa !8
  %137 = sext i32 %136 to i64
  %138 = getelementptr inbounds i32, ptr %135, i64 %137
  store i32 %134, ptr %138, align 4, !tbaa !8
  %139 = load ptr, ptr %8, align 8, !tbaa !35
  %140 = load i32, ptr %10, align 4, !tbaa !8
  %141 = load i32, ptr %11, align 4, !tbaa !8
  %142 = load i32, ptr %10, align 4, !tbaa !8
  %143 = sub nsw i32 %142, 1
  call void @Abc_TtSwapVars(ptr noundef %139, i32 noundef %140, i32 noundef %141, i32 noundef %143)
  store i32 1, ptr %6, align 4
  br label %144

144:                                              ; preds = %118, %117
  %145 = load i32, ptr %6, align 4
  ret i32 %145
}