; Function Attrs: inlinehint nofree nosync nounwind memory(read, argmem: readwrite, inaccessiblemem: none) uwtable
define internal fastcc range(i32 0, 2) i32 @Dau_Dsd6DecomposeSingleVarOne(ptr noundef captures(none) %0, ptr noundef %1, ptr noundef captures(none) %2, i32 noundef %3, i32 noundef %4) unnamed_addr #17 {
  %6 = load i64, ptr %1, align 8, !tbaa !29
  %7 = and i64 %6, 1
  %.not = icmp eq i64 %7, 0
  %8 = sext i32 %4 to i64
  %9 = getelementptr inbounds [6 x i64], ptr @s_Truths6Neg, i64 0, i64 %8
  %10 = load i64, ptr %9, align 8, !tbaa !29
  %11 = and i64 %10, %6
  br i1 %.not, label %32, label %12

12:                                               ; preds = %5
  %.not64 = icmp eq i64 %11, %10
  br i1 %.not64, label %13, label %47

13:                                               ; preds = %12
  %14 = getelementptr inbounds nuw i8, ptr %0, i64 1320
  %15 = getelementptr inbounds nuw i8, ptr %0, i64 8
  br label %16

16:                                               ; preds = %16, %13
  %17 = phi i8 [ 33, %13 ], [ %22, %16 ]
  %.06.i.idx = phi i64 [ 0, %13 ], [ %.06.i.add, %16 ]
  %.06.i.add = add nuw nsw i64 %.06.i.idx, 1
  %.ptr = getelementptr inbounds nuw i8, ptr @.str.19, i64 %.06.i.add
  %18 = load i32, ptr %15, align 8, !tbaa !93
  %19 = add nsw i32 %18, 1
  store i32 %19, ptr %15, align 8, !tbaa !93
  %20 = sext i32 %18 to i64
  %21 = getelementptr inbounds [2000 x i8], ptr %14, i64 0, i64 %20
  store i8 %17, ptr %21, align 1, !tbaa !3
  %22 = load i8, ptr %.ptr, align 1, !tbaa !3
  %exitcond = icmp eq i64 %.06.i.add, 2
  br i1 %exitcond, label %Dau_DsdWriteString.exit, label %16, !llvm.loop !94

Dau_DsdWriteString.exit:                          ; preds = %16
  %23 = load i64, ptr %1, align 8, !tbaa !29
  %24 = getelementptr inbounds [6 x i64], ptr @s_Truths6, i64 0, i64 %8
  %25 = load i64, ptr %24, align 8, !tbaa !29
  %26 = and i64 %25, %23
  %27 = shl nuw i32 1, %4
  %28 = zext nneg i32 %27 to i64
  %29 = lshr i64 %26, %28
  %30 = or i64 %29, %26
  %31 = xor i64 %30, -1
  store i64 %31, ptr %1, align 8, !tbaa !29
  br label %110

32:                                               ; preds = %5
  %.not65 = icmp eq i64 %11, 0
  br i1 %.not65, label %Dau_DsdWriteString.exit54, label %47

Dau_DsdWriteString.exit54:                        ; preds = %32
  %33 = getelementptr inbounds nuw i8, ptr %0, i64 1320
  %34 = getelementptr inbounds nuw i8, ptr %0, i64 8
  %35 = load i32, ptr %34, align 8, !tbaa !93
  %36 = add nsw i32 %35, 1
  store i32 %36, ptr %34, align 8, !tbaa !93
  %37 = sext i32 %35 to i64
  %38 = getelementptr inbounds [2000 x i8], ptr %33, i64 0, i64 %37
  store i8 40, ptr %38, align 1, !tbaa !3
  %39 = load i64, ptr %1, align 8, !tbaa !29
  %40 = getelementptr inbounds [6 x i64], ptr @s_Truths6, i64 0, i64 %8
  %41 = load i64, ptr %40, align 8, !tbaa !29
  %42 = and i64 %41, %39
  %43 = shl nuw i32 1, %4
  %44 = zext nneg i32 %43 to i64
  %45 = lshr i64 %42, %44
  %46 = or i64 %45, %42
  store i64 %46, ptr %1, align 8, !tbaa !29
  br label %110

47:                                               ; preds = %32, %12
  %.not48 = icmp sgt i64 %6, -1
  %48 = sext i32 %4 to i64
  %49 = getelementptr inbounds [6 x i64], ptr @s_Truths6, i64 0, i64 %48
  %50 = load i64, ptr %49, align 8, !tbaa !29
  %51 = and i64 %50, %6
  br i1 %.not48, label %70, label %52

52:                                               ; preds = %47
  %.not66 = icmp eq i64 %51, %50
  br i1 %.not66, label %53, label %87

53:                                               ; preds = %52
  %54 = getelementptr inbounds nuw i8, ptr %0, i64 1320
  %55 = getelementptr inbounds nuw i8, ptr %0, i64 8
  br label %56

56:                                               ; preds = %56, %53
  %57 = phi i8 [ 33, %53 ], [ %62, %56 ]
  %.06.i55.idx = phi i64 [ 0, %53 ], [ %.06.i55.add, %56 ]
  %.06.i55.add = add nuw nsw i64 %.06.i55.idx, 1
  %.ptr72 = getelementptr inbounds nuw i8, ptr @.str.21, i64 %.06.i55.add
  %58 = load i32, ptr %55, align 8, !tbaa !93
  %59 = add nsw i32 %58, 1
  store i32 %59, ptr %55, align 8, !tbaa !93
  %60 = sext i32 %58 to i64
  %61 = getelementptr inbounds [2000 x i8], ptr %54, i64 0, i64 %60
  store i8 %57, ptr %61, align 1, !tbaa !3
  %62 = load i8, ptr %.ptr72, align 1, !tbaa !3
  %exitcond69 = icmp eq i64 %.06.i55.add, 3
  br i1 %exitcond69, label %Dau_DsdWriteString.exit57, label %56, !llvm.loop !94

Dau_DsdWriteString.exit57:                        ; preds = %56
  %63 = load i64, ptr %1, align 8, !tbaa !29
  %64 = and i64 %10, %63
  %65 = shl nuw i32 1, %4
  %66 = zext nneg i32 %65 to i64
  %67 = shl i64 %64, %66
  %68 = or i64 %67, %64
  %69 = xor i64 %68, -1
  store i64 %69, ptr %1, align 8, !tbaa !29
  br label %110

70:                                               ; preds = %47
  %.not67 = icmp eq i64 %51, 0
  br i1 %.not67, label %71, label %87

71:                                               ; preds = %70
  %72 = getelementptr inbounds nuw i8, ptr %0, i64 1320
  %73 = getelementptr inbounds nuw i8, ptr %0, i64 8
  br label %74

74:                                               ; preds = %74, %71
  %75 = phi i8 [ 40, %71 ], [ %80, %74 ]
  %.06.i58.idx = phi i64 [ 0, %71 ], [ %.06.i58.add, %74 ]
  %.06.i58.add = add nuw nsw i64 %.06.i58.idx, 1
  %.ptr73 = getelementptr inbounds nuw i8, ptr @.str.22, i64 %.06.i58.add
  %76 = load i32, ptr %73, align 8, !tbaa !93
  %77 = add nsw i32 %76, 1
  store i32 %77, ptr %73, align 8, !tbaa !93
  %78 = sext i32 %76 to i64
  %79 = getelementptr inbounds [2000 x i8], ptr %72, i64 0, i64 %78
  store i8 %75, ptr %79, align 1, !tbaa !3
  %80 = load i8, ptr %.ptr73, align 1, !tbaa !3
  %exitcond70 = icmp eq i64 %.06.i58.add, 2
  br i1 %exitcond70, label %Dau_DsdWriteString.exit60, label %74, !llvm.loop !94

Dau_DsdWriteString.exit60:                        ; preds = %74
  %81 = load i64, ptr %1, align 8, !tbaa !29
  %82 = and i64 %10, %81
  %83 = shl nuw i32 1, %4
  %84 = zext nneg i32 %83 to i64
  %85 = shl i64 %82, %84
  %86 = or i64 %85, %82
  store i64 %86, ptr %1, align 8, !tbaa !29
  br label %110

87:                                               ; preds = %70, %52
  %88 = shl nuw i32 1, %4
  %89 = zext nneg i32 %88 to i64
  %90 = lshr i64 %6, %89
  %91 = xor i64 %6, %90
  %92 = xor i64 %91, -1
  %93 = and i64 %10, %92
  %.not68 = icmp eq i64 %93, 0
  br i1 %.not68, label %Dau_DsdWriteString.exit63, label %120

Dau_DsdWriteString.exit63:                        ; preds = %87
  %94 = getelementptr inbounds nuw i8, ptr %0, i64 1320
  %95 = getelementptr inbounds nuw i8, ptr %0, i64 8
  %96 = load i32, ptr %95, align 8, !tbaa !93
  %97 = add nsw i32 %96, 1
  store i32 %97, ptr %95, align 8, !tbaa !93
  %98 = sext i32 %96 to i64
  %99 = getelementptr inbounds [2000 x i8], ptr %94, i64 0, i64 %98
  store i8 91, ptr %99, align 1, !tbaa !3
  %100 = load i64, ptr %1, align 8, !tbaa !29
  %101 = and i64 %100, %10
  %102 = shl i64 %101, %89
  %103 = or i64 %102, %101
  store i64 %103, ptr %1, align 8, !tbaa !29
  %104 = getelementptr inbounds nuw i8, ptr %0, i64 16
  %105 = load i32, ptr %104, align 8, !tbaa !95
  %106 = shl nuw i32 1, %105
  %107 = getelementptr inbounds nuw i8, ptr %0, i64 20
  %108 = load i32, ptr %107, align 4, !tbaa !96
  %109 = or i32 %108, %106
  store i32 %109, ptr %107, align 4, !tbaa !96
  %.pre = sext i32 %4 to i64
  br label %110

110:                                              ; preds = %Dau_DsdWriteString.exit63, %Dau_DsdWriteString.exit60, %Dau_DsdWriteString.exit57, %Dau_DsdWriteString.exit54, %Dau_DsdWriteString.exit
  %.pre-phi71 = phi i64 [ %.pre, %Dau_DsdWriteString.exit63 ], [ %48, %Dau_DsdWriteString.exit60 ], [ %48, %Dau_DsdWriteString.exit57 ], [ %8, %Dau_DsdWriteString.exit54 ], [ %8, %Dau_DsdWriteString.exit ]
  %111 = getelementptr inbounds nuw i8, ptr %0, i64 16
  %112 = load i32, ptr %111, align 8, !tbaa !95
  %113 = add nsw i32 %112, 1
  store i32 %113, ptr %111, align 8, !tbaa !95
  %114 = getelementptr inbounds i32, ptr %2, i64 %.pre-phi71
  %115 = load i32, ptr %114, align 4, !tbaa !6
  tail call fastcc void @Dau_DsdWriteVar(ptr noundef nonnull %0, i32 noundef %115, i32 noundef 0)
  %116 = add nsw i32 %3, -1
  %117 = sext i32 %116 to i64
  %118 = getelementptr inbounds i32, ptr %2, i64 %117
  %119 = load i32, ptr %118, align 4, !tbaa !6
  store i32 %119, ptr %114, align 4, !tbaa !6
  tail call fastcc void @Abc_TtSwapVars(ptr noundef nonnull %1, i32 noundef %3, i32 noundef %4, i32 noundef %116)
  br label %120

120:                                              ; preds = %87, %110
  %.0 = phi i32 [ 1, %110 ], [ 0, %87 ]
  ret i32 %.0
}